; ModuleID = 'source-C-CXX/9/958.c'
source_filename = "source-C-CXX/9/958.c"
target datalayout = "e-m:e-p270:32:32-p271:32:32-p272:64:64-i64:64-f80:128-n8:16:32:64-S128"
target triple = "x86_64-pc-linux-gnu"

@.str = private unnamed_addr constant [3 x i8] c"%d\00", align 1

; Function Attrs: nofree nounwind sspstrong uwtable
define dso_local i32 @main() local_unnamed_addr #0 {
  %1 = alloca i32, align 4
  %2 = alloca [100 x i32], align 16
  %3 = alloca [100 x i32], align 16
  %4 = bitcast i32* %1 to i8*
  call void @llvm.lifetime.start.p0i8(i64 4, i8* nonnull %4) #5
  %5 = bitcast [100 x i32]* %2 to i8*
  call void @llvm.lifetime.start.p0i8(i64 400, i8* nonnull %5) #5
  call void @llvm.memset.p0i8.i64(i8* noundef nonnull align 16 dereferenceable(400) %5, i8 0, i64 400, i1 false)
  %6 = bitcast [100 x i32]* %3 to i8*
  call void @llvm.lifetime.start.p0i8(i64 400, i8* nonnull %6) #5
  call void @llvm.memset.p0i8.i64(i8* noundef nonnull align 16 dereferenceable(400) %6, i8 0, i64 400, i1 false)
  %7 = call i32 (i8*, ...) @__isoc99_scanf(i8* getelementptr inbounds ([3 x i8], [3 x i8]* @.str, i64 0, i64 0), i32* nonnull %1)
  %8 = load i32, i32* %1, align 4, !tbaa !5
  %9 = icmp sgt i32 %8, 0
  br i1 %9, label %14, label %10

10:                                               ; preds = %0
  %11 = add nsw i32 %8, -1
  %12 = sext i32 %11 to i64
  %13 = getelementptr inbounds [100 x i32], [100 x i32]* %3, i64 0, i64 %12
  store i32 1, i32* %13, align 4, !tbaa !5
  br label %138

14:                                               ; preds = %0, %14
  %15 = phi i64 [ %18, %14 ], [ 0, %0 ]
  %16 = getelementptr inbounds [100 x i32], [100 x i32]* %2, i64 0, i64 %15
  %17 = call i32 (i8*, ...) @__isoc99_scanf(i8* getelementptr inbounds ([3 x i8], [3 x i8]* @.str, i64 0, i64 0), i32* nonnull %16)
  %18 = add nuw nsw i64 %15, 1
  %19 = load i32, i32* %1, align 4, !tbaa !5
  %20 = sext i32 %19 to i64
  %21 = icmp slt i64 %18, %20
  br i1 %21, label %14, label %22, !llvm.loop !9

22:                                               ; preds = %14
  %23 = add nsw i32 %19, -1
  %24 = sext i32 %23 to i64
  %25 = getelementptr inbounds [100 x i32], [100 x i32]* %3, i64 0, i64 %24
  store i32 1, i32* %25, align 4, !tbaa !5
  %26 = icmp sgt i32 %19, 1
  br i1 %26, label %27, label %36

27:                                               ; preds = %22
  %28 = zext i32 %19 to i64
  %29 = add nsw i64 %28, -1
  %30 = add nsw i32 %19, -2
  %31 = zext i32 %30 to i64
  br label %32

32:                                               ; preds = %27, %123
  %33 = phi i64 [ %31, %27 ], [ %127, %123 ]
  %34 = getelementptr inbounds [100 x i32], [100 x i32]* %2, i64 0, i64 %33
  %35 = icmp slt i64 %33, %24
  br i1 %35, label %107, label %123

36:                                               ; preds = %123, %22
  %37 = icmp sgt i32 %19, 0
  br i1 %37, label %38, label %138

38:                                               ; preds = %36
  %39 = zext i32 %19 to i64
  %40 = icmp ult i32 %19, 8
  br i1 %40, label %104, label %41

41:                                               ; preds = %38
  %42 = and i64 %39, 4294967288
  %43 = add nsw i64 %42, -8
  %44 = lshr exact i64 %43, 3
  %45 = add nuw nsw i64 %44, 1
  %46 = and i64 %45, 1
  %47 = icmp eq i64 %43, 0
  br i1 %47, label %79, label %48

48:                                               ; preds = %41
  %49 = and i64 %45, 4611686018427387902
  br label %50

50:                                               ; preds = %50, %48
  %51 = phi i64 [ 0, %48 ], [ %76, %50 ]
  %52 = phi <4 x i32> [ <i32 1, i32 1, i32 1, i32 1>, %48 ], [ %74, %50 ]
  %53 = phi <4 x i32> [ <i32 1, i32 1, i32 1, i32 1>, %48 ], [ %75, %50 ]
  %54 = phi i64 [ %49, %48 ], [ %77, %50 ]
  %55 = getelementptr inbounds [100 x i32], [100 x i32]* %3, i64 0, i64 %51
  %56 = bitcast i32* %55 to <4 x i32>*
  %57 = load <4 x i32>, <4 x i32>* %56, align 16, !tbaa !5
  %58 = getelementptr inbounds i32, i32* %55, i64 4
  %59 = bitcast i32* %58 to <4 x i32>*
  %60 = load <4 x i32>, <4 x i32>* %59, align 16, !tbaa !5
  %61 = icmp sgt <4 x i32> %57, %52
  %62 = icmp sgt <4 x i32> %60, %53
  %63 = select <4 x i1> %61, <4 x i32> %57, <4 x i32> %52
  %64 = select <4 x i1> %62, <4 x i32> %60, <4 x i32> %53
  %65 = or i64 %51, 8
  %66 = getelementptr inbounds [100 x i32], [100 x i32]* %3, i64 0, i64 %65
  %67 = bitcast i32* %66 to <4 x i32>*
  %68 = load <4 x i32>, <4 x i32>* %67, align 16, !tbaa !5
  %69 = getelementptr inbounds i32, i32* %66, i64 4
  %70 = bitcast i32* %69 to <4 x i32>*
  %71 = load <4 x i32>, <4 x i32>* %70, align 16, !tbaa !5
  %72 = icmp sgt <4 x i32> %68, %63
  %73 = icmp sgt <4 x i32> %71, %64
  %74 = select <4 x i1> %72, <4 x i32> %68, <4 x i32> %63
  %75 = select <4 x i1> %73, <4 x i32> %71, <4 x i32> %64
  %76 = add nuw i64 %51, 16
  %77 = add i64 %54, -2
  %78 = icmp eq i64 %77, 0
  br i1 %78, label %79, label %50, !llvm.loop !11

79:                                               ; preds = %50, %41
  %80 = phi <4 x i32> [ undef, %41 ], [ %74, %50 ]
  %81 = phi <4 x i32> [ undef, %41 ], [ %75, %50 ]
  %82 = phi i64 [ 0, %41 ], [ %76, %50 ]
  %83 = phi <4 x i32> [ <i32 1, i32 1, i32 1, i32 1>, %41 ], [ %74, %50 ]
  %84 = phi <4 x i32> [ <i32 1, i32 1, i32 1, i32 1>, %41 ], [ %75, %50 ]
  %85 = icmp eq i64 %46, 0
  br i1 %85, label %97, label %86

86:                                               ; preds = %79
  %87 = getelementptr inbounds [100 x i32], [100 x i32]* %3, i64 0, i64 %82
  %88 = bitcast i32* %87 to <4 x i32>*
  %89 = load <4 x i32>, <4 x i32>* %88, align 16, !tbaa !5
  %90 = getelementptr inbounds i32, i32* %87, i64 4
  %91 = bitcast i32* %90 to <4 x i32>*
  %92 = load <4 x i32>, <4 x i32>* %91, align 16, !tbaa !5
  %93 = icmp sgt <4 x i32> %92, %84
  %94 = select <4 x i1> %93, <4 x i32> %92, <4 x i32> %84
  %95 = icmp sgt <4 x i32> %89, %83
  %96 = select <4 x i1> %95, <4 x i32> %89, <4 x i32> %83
  br label %97

97:                                               ; preds = %79, %86
  %98 = phi <4 x i32> [ %80, %79 ], [ %96, %86 ]
  %99 = phi <4 x i32> [ %81, %79 ], [ %94, %86 ]
  %100 = icmp sgt <4 x i32> %98, %99
  %101 = select <4 x i1> %100, <4 x i32> %98, <4 x i32> %99
  %102 = call i32 @llvm.vector.reduce.smax.v4i32(<4 x i32> %101)
  %103 = icmp eq i64 %42, %39
  br i1 %103, label %138, label %104

104:                                              ; preds = %38, %97
  %105 = phi i64 [ 0, %38 ], [ %42, %97 ]
  %106 = phi i32 [ 1, %38 ], [ %102, %97 ]
  br label %129

107:                                              ; preds = %32, %119
  %108 = phi i64 [ %121, %119 ], [ %29, %32 ]
  %109 = phi i32 [ %120, %119 ], [ 0, %32 ]
  %110 = getelementptr inbounds [100 x i32], [100 x i32]* %3, i64 0, i64 %108
  %111 = load i32, i32* %110, align 4, !tbaa !5
  %112 = icmp sgt i32 %111, %109
  br i1 %112, label %113, label %119

113:                                              ; preds = %107
  %114 = getelementptr inbounds [100 x i32], [100 x i32]* %2, i64 0, i64 %108
  %115 = load i32, i32* %114, align 4, !tbaa !5
  %116 = load i32, i32* %34, align 4, !tbaa !5
  %117 = icmp sgt i32 %115, %116
  %118 = select i1 %117, i32 %109, i32 %111
  br label %119

119:                                              ; preds = %113, %107
  %120 = phi i32 [ %109, %107 ], [ %118, %113 ]
  %121 = add nsw i64 %108, -1
  %122 = icmp sgt i64 %121, %33
  br i1 %122, label %107, label %123, !llvm.loop !13

123:                                              ; preds = %119, %32
  %124 = phi i32 [ 0, %32 ], [ %120, %119 ]
  %125 = add nsw i32 %124, 1
  %126 = getelementptr inbounds [100 x i32], [100 x i32]* %3, i64 0, i64 %33
  store i32 %125, i32* %126, align 4, !tbaa !5
  %127 = add nsw i64 %33, -1
  %128 = icmp sgt i64 %33, 0
  br i1 %128, label %32, label %36, !llvm.loop !14

129:                                              ; preds = %104, %129
  %130 = phi i64 [ %136, %129 ], [ %105, %104 ]
  %131 = phi i32 [ %135, %129 ], [ %106, %104 ]
  %132 = getelementptr inbounds [100 x i32], [100 x i32]* %3, i64 0, i64 %130
  %133 = load i32, i32* %132, align 4, !tbaa !5
  %134 = icmp sgt i32 %133, %131
  %135 = select i1 %134, i32 %133, i32 %131
  %136 = add nuw nsw i64 %130, 1
  %137 = icmp eq i64 %136, %39
  br i1 %137, label %138, label %129, !llvm.loop !15

138:                                              ; preds = %129, %97, %10, %36
  %139 = phi i32 [ 1, %36 ], [ 1, %10 ], [ %102, %97 ], [ %135, %129 ]
  %140 = call i32 (i8*, ...) @printf(i8* nonnull dereferenceable(1) getelementptr inbounds ([3 x i8], [3 x i8]* @.str, i64 0, i64 0), i32 %139)
  call void @llvm.lifetime.end.p0i8(i64 400, i8* nonnull %6) #5
  call void @llvm.lifetime.end.p0i8(i64 400, i8* nonnull %5) #5
  call void @llvm.lifetime.end.p0i8(i64 4, i8* nonnull %4) #5
  ret i32 0
}

; Function Attrs: argmemonly mustprogress nofree nosync nounwind willreturn
declare void @llvm.lifetime.start.p0i8(i64 immarg, i8* nocapture) #1

; Function Attrs: argmemonly mustprogress nofree nounwind willreturn writeonly
declare void @llvm.memset.p0i8.i64(i8* nocapture writeonly, i8, i64, i1 immarg) #2

; Function Attrs: nofree nounwind
declare noundef i32 @__isoc99_scanf(i8* nocapture noundef readonly, ...) local_unnamed_addr #3

; Function Attrs: nofree nounwind
declare noundef i32 @printf(i8* nocapture noundef readonly, ...) local_unnamed_addr #3

; Function Attrs: argmemonly mustprogress nofree nosync nounwind willreturn
declare void @llvm.lifetime.end.p0i8(i64 immarg, i8* nocapture) #1

; Function Attrs: nofree nosync nounwind readnone willreturn
declare i32 @llvm.vector.reduce.smax.v4i32(<4 x i32>) #4


!llvm.module.flags = !{!0, !1, !2, !3}
!llvm.ident = !{!4}

!0 = !{i32 1, !"wchar_size", i32 4}
!1 = !{i32 7, !"PIC Level", i32 2}
!2 = !{i32 7, !"PIE Level", i32 2}
!3 = !{i32 7, !"uwtable", i32 1}
!4 = !{!"clang version 13.0.0"}
!5 = !{!6, !6, i64 0}
!6 = !{!"int", !7, i64 0}
!7 = !{!"omnipotent char", !8, i64 0}
!8 = !{!"Simple C/C++ TBAA"}
!9 = distinct !{!9, !10}
!10 = !{!"llvm.loop.mustprogress"}
!11 = distinct !{!11, !10, !12}
!12 = !{!"llvm.loop.isvectorized", i32 1}
!13 = distinct !{!13, !10}
!14 = distinct !{!14, !10}
!15 = distinct !{!15, !10, !16, !12}
!16 = !{!"llvm.loop.unroll.runtime.disable"}
